target datalayout = "e-m:e-p270:32:32-p271:32:32-p272:64:64-i64:64-i128:128-f80:128-n8:16:32:64-S128"
target triple = "x86_64-unknown-linux-gnu"

%class.mpf = type { i32, %class.mpz, i64 }
%class.mpz = type { i32, i8, ptr }

; Function Attrs: mustprogress nounwind uwtable
define linkonce_odr hidden void @_ZSt4swapIP8mpz_cellENSt9enable_ifIXsr6__and_ISt6__not_ISt15__is_tuple_likeIT_EESt21is_move_constructibleIS5_ESt18is_move_assignableIS5_EEE5valueEvE4typeERS5_SE_(ptr noundef nonnull align 8 dereferenceable(8) %__a, ptr noundef nonnull align 8 dereferenceable(8) %__b) #5 comdat {
entry:
  %__a.addr = alloca ptr, align 8
  %__b.addr = alloca ptr, align 8
  %__tmp = alloca ptr, align 8
  store ptr %__a, ptr %__a.addr, align 8
  store ptr %__b, ptr %__b.addr, align 8
  %0 = load ptr, ptr %__a.addr, align 8
  %1 = load ptr, ptr %0, align 8
  store ptr %1, ptr %__tmp, align 8
  %2 = load ptr, ptr %__b.addr, align 8
  %3 = load ptr, ptr %2, align 8
  %4 = load ptr, ptr %__a.addr, align 8
  store ptr %3, ptr %4, align 8
  %5 = load ptr, ptr %__tmp, align 8
  %6 = load ptr, ptr %__b.addr, align 8
  store ptr %5, ptr %6, align 8
  ret void
}

; Function Attrs: mustprogress nounwind uwtable
define linkonce_odr void @_ZSt4swapIiENSt9enable_ifIXsr6__and_ISt6__not_ISt15__is_tuple_likeIT_EESt21is_move_constructibleIS3_ESt18is_move_assignableIS3_EEE5valueEvE4typeERS3_SC_(ptr noundef nonnull align 4 dereferenceable(4) %__a, ptr noundef nonnull align 4 dereferenceable(4) %__b) #5 comdat {
entry:
  %__a.addr = alloca ptr, align 8
  %__b.addr = alloca ptr, align 8
  %__tmp = alloca i32, align 4
  store ptr %__a, ptr %__a.addr, align 8
  store ptr %__b, ptr %__b.addr, align 8
  %0 = load ptr, ptr %__a.addr, align 8
  %1 = load i32, ptr %0, align 4
  store i32 %1, ptr %__tmp, align 4
  %2 = load ptr, ptr %__b.addr, align 8
  %3 = load i32, ptr %2, align 4
  %4 = load ptr, ptr %__a.addr, align 8
  store i32 %3, ptr %4, align 4
  %5 = load i32, ptr %__tmp, align 4
  %6 = load ptr, ptr %__b.addr, align 8
  store i32 %5, ptr %6, align 4
  ret void
}

; Function Attrs: mustprogress nounwind uwtable
define linkonce_odr void @_ZSt4swapIlENSt9enable_ifIXsr6__and_ISt6__not_ISt15__is_tuple_likeIT_EESt21is_move_constructibleIS3_ESt18is_move_assignableIS3_EEE5valueEvE4typeERS3_SC_(ptr noundef nonnull align 8 dereferenceable(8) %__a, ptr noundef nonnull align 8 dereferenceable(8) %__b) #5 comdat {
entry:
  %__a.addr = alloca ptr, align 8
  %__b.addr = alloca ptr, align 8
  %__tmp = alloca i64, align 8
  store ptr %__a, ptr %__a.addr, align 8
  store ptr %__b, ptr %__b.addr, align 8
  %0 = load ptr, ptr %__a.addr, align 8
  %1 = load i64, ptr %0, align 8
  store i64 %1, ptr %__tmp, align 8
  %2 = load ptr, ptr %__b.addr, align 8
  %3 = load i64, ptr %2, align 8
  %4 = load ptr, ptr %__a.addr, align 8
  store i64 %3, ptr %4, align 8
  %5 = load i64, ptr %__tmp, align 8
  %6 = load ptr, ptr %__b.addr, align 8
  store i64 %5, ptr %6, align 8
  ret void
}

; Function Attrs: mustprogress nounwind uwtable
define linkonce_odr hidden void @_ZN3mpz4swapERS_(ptr noundef nonnull align 8 dereferenceable(16) %this, ptr noundef nonnull align 8 dereferenceable(16) %other) #5 comdat align 2 {
entry:
  %this.addr = alloca ptr, align 8
  %other.addr = alloca ptr, align 8
  %o = alloca i32, align 4
  %k = alloca i32, align 4
  store ptr %this, ptr %this.addr, align 8
  store ptr %other, ptr %other.addr, align 8
  %this1 = load ptr, ptr %this.addr, align 8
  %m_val = getelementptr inbounds %class.mpz, ptr %this1, i32 0, i32 0
  %0 = load ptr, ptr %other.addr, align 8
  %m_val2 = getelementptr inbounds %class.mpz, ptr %0, i32 0, i32 0
  call void @_ZSt4swapIiENSt9enable_ifIXsr6__and_ISt6__not_ISt15__is_tuple_likeIT_EESt21is_move_constructibleIS3_ESt18is_move_assignableIS3_EEE5valueEvE4typeERS3_SC_(ptr noundef nonnull align 4 dereferenceable(4) %m_val, ptr noundef nonnull align 4 dereferenceable(4) %m_val2) #3
  %m_ptr = getelementptr inbounds %class.mpz, ptr %this1, i32 0, i32 2
  %1 = load ptr, ptr %other.addr, align 8
  %m_ptr3 = getelementptr inbounds %class.mpz, ptr %1, i32 0, i32 2
  call void @_ZSt4swapIP8mpz_cellENSt9enable_ifIXsr6__and_ISt6__not_ISt15__is_tuple_likeIT_EESt21is_move_constructibleIS5_ESt18is_move_assignableIS5_EEE5valueEvE4typeERS5_SE_(ptr noundef nonnull align 8 dereferenceable(8) %m_ptr, ptr noundef nonnull align 8 dereferenceable(8) %m_ptr3) #3
  %m_owner = getelementptr inbounds %class.mpz, ptr %this1, i32 0, i32 1
  %bf.load = load i8, ptr %m_owner, align 4
  %bf.lshr = lshr i8 %bf.load, 1
  %bf.clear = and i8 %bf.lshr, 1
  %bf.cast = zext i8 %bf.clear to i32
  store i32 %bf.cast, ptr %o, align 4
  %2 = load ptr, ptr %other.addr, align 8
  %m_owner4 = getelementptr inbounds %class.mpz, ptr %2, i32 0, i32 1
  %bf.load5 = load i8, ptr %m_owner4, align 4
  %bf.lshr6 = lshr i8 %bf.load5, 1
  %bf.clear7 = and i8 %bf.lshr6, 1
  %bf.cast8 = zext i8 %bf.clear7 to i32
  %m_owner9 = getelementptr inbounds %class.mpz, ptr %this1, i32 0, i32 1
  %3 = trunc i32 %bf.cast8 to i8
  %bf.load10 = load i8, ptr %m_owner9, align 4
  %bf.value = and i8 %3, 1
  %bf.shl = shl i8 %bf.value, 1
  %bf.clear11 = and i8 %bf.load10, -3
  %bf.set = or i8 %bf.clear11, %bf.shl
  store i8 %bf.set, ptr %m_owner9, align 4
  %4 = load i32, ptr %o, align 4
  %5 = load ptr, ptr %other.addr, align 8
  %m_owner12 = getelementptr inbounds %class.mpz, ptr %5, i32 0, i32 1
  %6 = trunc i32 %4 to i8
  %bf.load13 = load i8, ptr %m_owner12, align 4
  %bf.value14 = and i8 %6, 1
  %bf.shl15 = shl i8 %bf.value14, 1
  %bf.clear16 = and i8 %bf.load13, -3
  %bf.set17 = or i8 %bf.clear16, %bf.shl15
  store i8 %bf.set17, ptr %m_owner12, align 4
  %m_kind = getelementptr inbounds %class.mpz, ptr %this1, i32 0, i32 1
  %bf.load18 = load i8, ptr %m_kind, align 4
  %bf.clear19 = and i8 %bf.load18, 1
  %bf.cast20 = zext i8 %bf.clear19 to i32
  store i32 %bf.cast20, ptr %k, align 4
  %7 = load ptr, ptr %other.addr, align 8
  %m_kind21 = getelementptr inbounds %class.mpz, ptr %7, i32 0, i32 1
  %bf.load22 = load i8, ptr %m_kind21, align 4
  %bf.clear23 = and i8 %bf.load22, 1
  %bf.cast24 = zext i8 %bf.clear23 to i32
  %m_kind25 = getelementptr inbounds %class.mpz, ptr %this1, i32 0, i32 1
  %8 = trunc i32 %bf.cast24 to i8
  %bf.load26 = load i8, ptr %m_kind25, align 4
  %bf.value27 = and i8 %8, 1
  %bf.clear28 = and i8 %bf.load26, -2
  %bf.set29 = or i8 %bf.clear28, %bf.value27
  store i8 %bf.set29, ptr %m_kind25, align 4
  %9 = load i32, ptr %k, align 4
  %10 = load ptr, ptr %other.addr, align 8
  %m_kind30 = getelementptr inbounds %class.mpz, ptr %10, i32 0, i32 1
  %11 = trunc i32 %9 to i8
  %bf.load31 = load i8, ptr %m_kind30, align 4
  %bf.value32 = and i8 %11, 1
  %bf.clear33 = and i8 %bf.load31, -2
  %bf.set34 = or i8 %bf.clear33, %bf.value32
  store i8 %bf.set34, ptr %m_kind30, align 4
  ret void
}

; Function Attrs: mustprogress nounwind uwtable
define hidden void @_ZN3mpf4swapERS_(ptr noundef nonnull align 8 dereferenceable(32) %this, ptr noundef nonnull align 8 dereferenceable(32) %other) #5 align 2 {
entry:
  %this.addr = alloca ptr, align 8
  %other.addr = alloca ptr, align 8
  %tmp = alloca i32, align 4
  store ptr %this, ptr %this.addr, align 8
  store ptr %other, ptr %other.addr, align 8
  %this1 = load ptr, ptr %this.addr, align 8
  %bf.load = load i32, ptr %this1, align 8
  %bf.clear = and i32 %bf.load, 32767
  store i32 %bf.clear, ptr %tmp, align 4
  %0 = load ptr, ptr %other.addr, align 8
  %bf.load2 = load i32, ptr %0, align 8
  %bf.clear3 = and i32 %bf.load2, 32767
  %bf.load4 = load i32, ptr %this1, align 8
  %bf.value = and i32 %bf.clear3, 32767
  %bf.clear5 = and i32 %bf.load4, -32768
  %bf.set = or i32 %bf.clear5, %bf.value
  store i32 %bf.set, ptr %this1, align 8
  %1 = load i32, ptr %tmp, align 4
  %2 = load ptr, ptr %other.addr, align 8
  %bf.load6 = load i32, ptr %2, align 8
  %bf.value7 = and i32 %1, 32767
  %bf.clear8 = and i32 %bf.load6, -32768
  %bf.set9 = or i32 %bf.clear8, %bf.value7
  store i32 %bf.set9, ptr %2, align 8
  %bf.load10 = load i32, ptr %this1, align 8
  %bf.lshr = lshr i32 %bf.load10, 15
  %bf.clear11 = and i32 %bf.lshr, 65535
  store i32 %bf.clear11, ptr %tmp, align 4
  %3 = load ptr, ptr %other.addr, align 8
  %bf.load12 = load i32, ptr %3, align 8
  %bf.lshr13 = lshr i32 %bf.load12, 15
  %bf.clear14 = and i32 %bf.lshr13, 65535
  %bf.load15 = load i32, ptr %this1, align 8
  %bf.value16 = and i32 %bf.clear14, 65535
  %bf.shl = shl i32 %bf.value16, 15
  %bf.clear17 = and i32 %bf.load15, -2147450881
  %bf.set18 = or i32 %bf.clear17, %bf.shl
  store i32 %bf.set18, ptr %this1, align 8
  %4 = load i32, ptr %tmp, align 4
  %5 = load ptr, ptr %other.addr, align 8
  %bf.load19 = load i32, ptr %5, align 8
  %bf.value20 = and i32 %4, 65535
  %bf.shl21 = shl i32 %bf.value20, 15
  %bf.clear22 = and i32 %bf.load19, -2147450881
  %bf.set23 = or i32 %bf.clear22, %bf.shl21
  store i32 %bf.set23, ptr %5, align 8
  %bf.load24 = load i32, ptr %this1, align 8
  %bf.lshr25 = lshr i32 %bf.load24, 31
  store i32 %bf.lshr25, ptr %tmp, align 4
  %6 = load ptr, ptr %other.addr, align 8
  %bf.load26 = load i32, ptr %6, align 8
  %bf.lshr27 = lshr i32 %bf.load26, 31
  %bf.load28 = load i32, ptr %this1, align 8
  %bf.value29 = and i32 %bf.lshr27, 1
  %bf.shl30 = shl i32 %bf.value29, 31
  %bf.clear31 = and i32 %bf.load28, 2147483647
  %bf.set32 = or i32 %bf.clear31, %bf.shl30
  store i32 %bf.set32, ptr %this1, align 8
  %7 = load i32, ptr %tmp, align 4
  %8 = load ptr, ptr %other.addr, align 8
  %bf.load33 = load i32, ptr %8, align 8
  %bf.value34 = and i32 %7, 1
  %bf.shl35 = shl i32 %bf.value34, 31
  %bf.clear36 = and i32 %bf.load33, 2147483647
  %bf.set37 = or i32 %bf.clear36, %bf.shl35
  store i32 %bf.set37, ptr %8, align 8
  %significand = getelementptr inbounds %class.mpf, ptr %this1, i32 0, i32 1
  %9 = load ptr, ptr %other.addr, align 8
  %significand38 = getelementptr inbounds %class.mpf, ptr %9, i32 0, i32 1
  call void @_ZN3mpz4swapERS_(ptr noundef nonnull align 8 dereferenceable(16) %significand, ptr noundef nonnull align 8 dereferenceable(16) %significand38) #3
  %exponent = getelementptr inbounds %class.mpf, ptr %this1, i32 0, i32 2
  %10 = load ptr, ptr %other.addr, align 8
  %exponent39 = getelementptr inbounds %class.mpf, ptr %10, i32 0, i32 2
  call void @_ZSt4swapIlENSt9enable_ifIXsr6__and_ISt6__not_ISt15__is_tuple_likeIT_EESt21is_move_constructibleIS3_ESt18is_move_assignableIS3_EEE5valueEvE4typeERS3_SC_(ptr noundef nonnull align 8 dereferenceable(8) %exponent, ptr noundef nonnull align 8 dereferenceable(8) %exponent39) #3
  ret void
}