; Function Attrs: mustprogress nofree norecurse nosync nounwind willreturn memory(argmem: readwrite) uwtable
define hidden void @_ZN3mpf4swapERS_(ptr nocapture noundef nonnull align 8 dereferenceable(32) %this, ptr nocapture noundef nonnull align 8 dereferenceable(32) %other) local_unnamed_addr #3 align 2 {
entry:
  %bf.load = load i32, ptr %this, align 8
  %bf.clear = and i32 %bf.load, 32767
  %bf.load2 = load i32, ptr %other, align 8
  %bf.clear3 = and i32 %bf.load2, 32767
  %bf.clear5 = and i32 %bf.load, -32768
  %bf.set = or disjoint i32 %bf.clear3, %bf.clear5
  store i32 %bf.set, ptr %this, align 8
  %bf.load6 = load i32, ptr %other, align 8
  %bf.clear8 = and i32 %bf.load6, -32768
  %bf.set9 = or disjoint i32 %bf.clear8, %bf.clear
  store i32 %bf.set9, ptr %other, align 8
  %bf.load10 = load i32, ptr %this, align 8
  %bf.clear11 = and i32 %bf.load10, 2147450880
  %bf.clear14 = and i32 %bf.load6, 2147450880
  %bf.clear17 = and i32 %bf.load10, -2147450881
  %bf.set18 = or disjoint i32 %bf.clear17, %bf.clear14
  store i32 %bf.set18, ptr %this, align 8
  %bf.load19 = load i32, ptr %other, align 8
  %bf.clear22 = and i32 %bf.load19, -2147450881
  %bf.set23 = or disjoint i32 %bf.clear22, %bf.clear11
  store i32 %bf.set23, ptr %other, align 8
  %bf.load24 = load i32, ptr %this, align 8
  %bf.lshr25 = and i32 %bf.load24, -2147483648
  %bf.lshr27 = and i32 %bf.load19, -2147483648
  %bf.clear31 = and i32 %bf.load24, 2147483647
  %bf.set32 = or disjoint i32 %bf.clear31, %bf.lshr27
  store i32 %bf.set32, ptr %this, align 8
  %bf.load33 = load i32, ptr %other, align 8
  %bf.clear36 = and i32 %bf.load33, 2147483647
  %bf.set37 = or disjoint i32 %bf.clear36, %bf.lshr25
  store i32 %bf.set37, ptr %other, align 8
  %significand = getelementptr inbounds i8, ptr %this, i64 8
  %significand38 = getelementptr inbounds i8, ptr %other, i64 8
  %0 = load i32, ptr %significand, align 8
  %1 = load i32, ptr %significand38, align 8
  store i32 %1, ptr %significand, align 8
  store i32 %0, ptr %significand38, align 8
  %m_ptr.i = getelementptr inbounds i8, ptr %this, i64 16
  %m_ptr3.i = getelementptr inbounds i8, ptr %other, i64 16
  %2 = load ptr, ptr %m_ptr.i, align 8
  %3 = load ptr, ptr %m_ptr3.i, align 8
  store ptr %3, ptr %m_ptr.i, align 8
  store ptr %2, ptr %m_ptr3.i, align 8
  %m_owner.i = getelementptr inbounds i8, ptr %this, i64 12
  %bf.load.i = load i8, ptr %m_owner.i, align 4
  %bf.clear.i = and i8 %bf.load.i, 2
  %m_owner4.i = getelementptr inbounds i8, ptr %other, i64 12
  %bf.load5.i = load i8, ptr %m_owner4.i, align 4
  %bf.clear7.i = and i8 %bf.load5.i, 2
  %bf.clear11.i = and i8 %bf.load.i, -3
  %bf.set.i = or disjoint i8 %bf.clear7.i, %bf.clear11.i
  store i8 %bf.set.i, ptr %m_owner.i, align 4
  %bf.load13.i = load i8, ptr %m_owner4.i, align 4
  %bf.clear16.i = and i8 %bf.load13.i, -3
  %bf.set17.i = or disjoint i8 %bf.clear16.i, %bf.clear.i
  store i8 %bf.set17.i, ptr %m_owner4.i, align 4
  %bf.load18.i = load i8, ptr %m_owner.i, align 4
  %bf.clear19.i = and i8 %bf.load18.i, 1
  %bf.clear23.i = and i8 %bf.load13.i, 1
  %bf.clear28.i = and i8 %bf.load18.i, -2
  %bf.set29.i = or disjoint i8 %bf.clear28.i, %bf.clear23.i
  store i8 %bf.set29.i, ptr %m_owner.i, align 4
  %bf.load31.i = load i8, ptr %m_owner4.i, align 4
  %bf.clear33.i = and i8 %bf.load31.i, -2
  %bf.set34.i = or disjoint i8 %bf.clear33.i, %bf.clear19.i
  store i8 %bf.set34.i, ptr %m_owner4.i, align 4
  %exponent = getelementptr inbounds i8, ptr %this, i64 24
  %exponent39 = getelementptr inbounds i8, ptr %other, i64 24
  %4 = load i64, ptr %exponent, align 8
  %5 = load i64, ptr %exponent39, align 8
  store i64 %5, ptr %exponent, align 8
  store i64 %4, ptr %exponent39, align 8
  ret void
}